target datalayout = "e-m:e-p270:32:32-p271:32:32-p272:64:64-i64:64-i128:128-f80:128-n8:16:32:64-S128"
target triple = "x86_64-pc-linux-gnu"

%struct.packet_netlink_data = type { i32, i32, i16 }

@hf_netlink_sock_diag_rqueue = internal global i32 0, align 4
@hf_netlink_sock_diag_wqueue = internal global i32 0, align 4
@hf_netlink_sock_diag_shutdown = internal global i32 0, align 4
@hf_netlink_sock_diag_unix_name = internal global i32 0, align 4
@hf_netlink_sock_diag_unix_peer_inode = internal global i32 0, align 4
@.str.175 = private unnamed_addr constant [2 x i8] c"@\00", align 1
@.str.176 = private unnamed_addr constant [5 x i8] c": %s\00", align 1
@.str.177 = private unnamed_addr constant [16 x i8] c": Peer inode %u\00", align 1
@dissect_sock_diag_meminfo.hfs = internal global [6 x ptr] [ptr @hf_netlink_sock_diag_rmem_alloc, ptr @hf_netlink_sock_diag_rcvbuf, ptr @hf_netlink_sock_diag_wmem_alloc, ptr @hf_netlink_sock_diag_sndbuf, ptr @hf_netlink_sock_diag_fwd_alloc, ptr @hf_netlink_sock_diag_wmem_queued], align 16
@.str.178 = private unnamed_addr constant [23 x i8] c"Invalid how value (%x)\00", align 1

; Function Attrs: null_pointer_is_valid sspstrong uwtable
define internal void @sock_diag_proto_tree_add_shutdown(ptr noundef %0, ptr noundef %1, i32 noundef %2) #0 {
  %4 = alloca ptr, align 8
  %5 = alloca ptr, align 8
  %6 = alloca i32, align 4
  %7 = alloca i8, align 1
  store ptr %0, ptr %4, align 8
  store ptr %1, ptr %5, align 8
  store i32 %2, ptr %6, align 4
  call void @llvm.lifetime.start.p0(i64 1, ptr %7) #4
  %8 = load ptr, ptr %5, align 8
  %9 = load i32, ptr %6, align 4
  %10 = call zeroext i8 @tvb_get_uint8(ptr noundef %8, i32 noundef %9)
  store i8 %10, ptr %7, align 1
  %11 = load ptr, ptr %4, align 8
  %12 = load i32, ptr @hf_netlink_sock_diag_shutdown, align 4
  %13 = load ptr, ptr %5, align 8
  %14 = load i32, ptr %6, align 4
  %15 = call ptr @proto_tree_add_item(ptr noundef %11, i32 noundef %12, ptr noundef %13, i32 noundef %14, i32 noundef 1, i32 noundef 0)
  %16 = load ptr, ptr %4, align 8
  %17 = load i8, ptr %7, align 1
  %18 = zext i8 %17 to i32
  %19 = call ptr @val_to_str(i32 noundef %18, ptr noundef @netlink_sock_diag_shutdown_flags_vals, ptr noundef @.str.178)
  call void (ptr, ptr, ...) @proto_item_append_text(ptr noundef %16, ptr noundef @.str.176, ptr noundef %19)
  call void @llvm.lifetime.end.p0(i64 1, ptr %7) #4
  ret void
}

; Function Attrs: null_pointer_is_valid sspstrong uwtable
define internal i32 @dissect_sock_diag_meminfo(ptr noundef %0, ptr noundef %1, ptr noundef %2, ptr noundef %3, i32 noundef %4, i32 noundef %5) #0 {
  %7 = alloca i32, align 4
  %8 = alloca ptr, align 8
  %9 = alloca ptr, align 8
  %10 = alloca ptr, align 8
  %11 = alloca ptr, align 8
  %12 = alloca i32, align 4
  %13 = alloca i32, align 4
  %14 = alloca i32, align 4
  %15 = alloca i32, align 4
  store ptr %0, ptr %8, align 8
  store ptr %1, ptr %9, align 8
  store ptr %2, ptr %10, align 8
  store ptr %3, ptr %11, align 8
  store i32 %4, ptr %12, align 4
  store i32 %5, ptr %13, align 4
  call void @llvm.lifetime.start.p0(i64 4, ptr %14) #4
  %16 = load i32, ptr %13, align 4
  %17 = icmp eq i32 %16, 0
  br i1 %17, label %22, label %18

18:                                               ; preds = %6
  %19 = load i32, ptr %13, align 4
  %20 = srem i32 %19, 4
  %21 = icmp ne i32 %20, 0
  br i1 %21, label %22, label %23

22:                                               ; preds = %18, %6
  store i32 0, ptr %7, align 4
  store i32 1, ptr %15, align 4
  br label %58

23:                                               ; preds = %18
  store i32 0, ptr %14, align 4
  br label %24

24:                                               ; preds = %50, %23
  %25 = load i32, ptr %13, align 4
  %26 = icmp sge i32 %25, 4
  br i1 %26, label %27, label %31

27:                                               ; preds = %24
  %28 = load i32, ptr %14, align 4
  %29 = zext i32 %28 to i64
  %30 = icmp ult i64 %29, 6
  br label %31

31:                                               ; preds = %27, %24
  %32 = phi i1 [ false, %24 ], [ %30, %27 ]
  br i1 %32, label %33, label %53

33:                                               ; preds = %31
  %34 = load ptr, ptr %8, align 8
  %35 = load i32, ptr %14, align 4
  %36 = zext i32 %35 to i64
  %37 = getelementptr [6 x ptr], ptr @dissect_sock_diag_meminfo.hfs, i64 0, i64 %36
  %38 = load ptr, ptr %37, align 8
  %39 = load i32, ptr %38, align 4
  %40 = load ptr, ptr %11, align 8
  %41 = load i32, ptr %12, align 4
  %42 = load ptr, ptr %10, align 8
  %43 = getelementptr inbounds nuw %struct.packet_netlink_data, ptr %42, i32 0, i32 1
  %44 = load i32, ptr %43, align 4
  %45 = call ptr @proto_tree_add_item(ptr noundef %34, i32 noundef %39, ptr noundef %40, i32 noundef %41, i32 noundef 4, i32 noundef %44)
  %46 = load i32, ptr %12, align 4
  %47 = add i32 %46, 4
  store i32 %47, ptr %12, align 4
  %48 = load i32, ptr %13, align 4
  %49 = sub i32 %48, 4
  store i32 %49, ptr %13, align 4
  br label %50

50:                                               ; preds = %33
  %51 = load i32, ptr %14, align 4
  %52 = add i32 %51, 1
  store i32 %52, ptr %14, align 4
  br label %24, !llvm.loop !10

53:                                               ; preds = %31
  %54 = load i32, ptr %13, align 4
  %55 = icmp ne i32 %54, 0
  br i1 %55, label %56, label %57

56:                                               ; preds = %53
  br label %57

57:                                               ; preds = %56, %53
  store i32 1, ptr %7, align 4
  store i32 1, ptr %15, align 4
  br label %58

58:                                               ; preds = %57, %22
  call void @llvm.lifetime.end.p0(i64 4, ptr %14) #4
  %59 = load i32, ptr %7, align 4
  ret i32 %59
}

; Function Attrs: null_pointer_is_valid sspstrong uwtable
define internal i32 @dissect_netlink_unix_sock_diag_reply_attrs(ptr noundef %0, ptr noundef %1, ptr noundef %2, ptr noundef %3, i32 noundef %4, i32 noundef %5, i32 noundef %6) #0 {
  %8 = alloca i32, align 4
  %9 = alloca ptr, align 8
  %10 = alloca ptr, align 8
  %11 = alloca ptr, align 8
  %12 = alloca ptr, align 8
  %13 = alloca i32, align 4
  %14 = alloca i32, align 4
  %15 = alloca i32, align 4
  %16 = alloca i32, align 4
  %17 = alloca ptr, align 8
  %18 = alloca ptr, align 8
  %19 = alloca i32, align 4
  %20 = alloca i32, align 4
  store ptr %0, ptr %9, align 8
  store ptr %1, ptr %10, align 8
  store ptr %2, ptr %11, align 8
  store ptr %3, ptr %12, align 8
  store i32 %4, ptr %13, align 4
  store i32 %5, ptr %14, align 4
  store i32 %6, ptr %15, align 4
  call void @llvm.lifetime.start.p0(i64 4, ptr %16) #4
  %21 = load i32, ptr %13, align 4
  store i32 %21, ptr %16, align 4
  call void @llvm.lifetime.start.p0(i64 8, ptr %17) #4
  %22 = load ptr, ptr %10, align 8
  store ptr %22, ptr %17, align 8
  %23 = load i32, ptr %16, align 4
  switch i32 %23, label %112 [
    i32 0, label %24
    i32 2, label %59
    i32 4, label %74
    i32 5, label %95
    i32 6, label %103
    i32 1, label %111
    i32 3, label %111
  ]

24:                                               ; preds = %7
  call void @llvm.lifetime.start.p0(i64 8, ptr %18) #4
  %25 = load i32, ptr %15, align 4
  %26 = icmp sgt i32 %25, 0
  br i1 %26, label %27, label %43

27:                                               ; preds = %24
  %28 = load ptr, ptr %9, align 8
  %29 = load i32, ptr %14, align 4
  %30 = call zeroext i8 @tvb_get_uint8(ptr noundef %28, i32 noundef %29)
  %31 = zext i8 %30 to i32
  %32 = icmp eq i32 %31, 0
  br i1 %32, label %33, label %43

33:                                               ; preds = %27
  %34 = call ptr @wmem_packet_scope()
  %35 = call ptr @wmem_packet_scope()
  %36 = load ptr, ptr %9, align 8
  %37 = load i32, ptr %14, align 4
  %38 = add i32 %37, 1
  %39 = load i32, ptr %15, align 4
  %40 = sub i32 %39, 1
  %41 = call ptr @tvb_get_string_enc(ptr noundef %35, ptr noundef %36, i32 noundef %38, i32 noundef %40, i32 noundef 0)
  %42 = call noalias ptr (ptr, ptr, ...) @wmem_strconcat(ptr noundef %34, ptr noundef @.str.175, ptr noundef %41, ptr noundef null)
  store ptr %42, ptr %18, align 8
  br label %49

43:                                               ; preds = %27, %24
  %44 = call ptr @wmem_packet_scope()
  %45 = load ptr, ptr %9, align 8
  %46 = load i32, ptr %14, align 4
  %47 = load i32, ptr %15, align 4
  %48 = call ptr @tvb_get_string_enc(ptr noundef %44, ptr noundef %45, i32 noundef %46, i32 noundef %47, i32 noundef 0)
  store ptr %48, ptr %18, align 8
  br label %49

49:                                               ; preds = %43, %33
  %50 = load ptr, ptr %12, align 8
  %51 = load ptr, ptr %18, align 8
  call void (ptr, ptr, ...) @proto_item_append_text(ptr noundef %50, ptr noundef @.str.176, ptr noundef %51)
  %52 = load ptr, ptr %12, align 8
  %53 = load i32, ptr @hf_netlink_sock_diag_unix_name, align 4
  %54 = load ptr, ptr %9, align 8
  %55 = load i32, ptr %14, align 4
  %56 = load i32, ptr %15, align 4
  %57 = load ptr, ptr %18, align 8
  %58 = call ptr @proto_tree_add_string(ptr noundef %52, i32 noundef %53, ptr noundef %54, i32 noundef %55, i32 noundef %56, ptr noundef %57)
  store i32 1, ptr %8, align 4
  store i32 1, ptr %19, align 4
  call void @llvm.lifetime.end.p0(i64 8, ptr %18) #4
  br label %113

59:                                               ; preds = %7
  %60 = load i32, ptr %15, align 4
  %61 = icmp eq i32 %60, 4
  br i1 %61, label %62, label %73

62:                                               ; preds = %59
  call void @llvm.lifetime.start.p0(i64 4, ptr %20) #4
  %63 = load ptr, ptr %12, align 8
  %64 = load i32, ptr @hf_netlink_sock_diag_unix_peer_inode, align 4
  %65 = load ptr, ptr %9, align 8
  %66 = load i32, ptr %14, align 4
  %67 = load ptr, ptr %11, align 8
  %68 = getelementptr inbounds nuw %struct.packet_netlink_data, ptr %67, i32 0, i32 1
  %69 = load i32, ptr %68, align 4
  %70 = call ptr @proto_tree_add_item_ret_uint(ptr noundef %63, i32 noundef %64, ptr noundef %65, i32 noundef %66, i32 noundef 4, i32 noundef %69, ptr noundef %20)
  %71 = load ptr, ptr %12, align 8
  %72 = load i32, ptr %20, align 4
  call void (ptr, ptr, ...) @proto_item_append_text(ptr noundef %71, ptr noundef @.str.177, i32 noundef %72)
  store i32 1, ptr %8, align 4
  store i32 1, ptr %19, align 4
  call void @llvm.lifetime.end.p0(i64 4, ptr %20) #4
  br label %113

73:                                               ; preds = %59
  store i32 0, ptr %8, align 4
  store i32 1, ptr %19, align 4
  br label %113

74:                                               ; preds = %7
  %75 = load i32, ptr %15, align 4
  %76 = icmp eq i32 %75, 8
  br i1 %76, label %77, label %94

77:                                               ; preds = %74
  %78 = load ptr, ptr %12, align 8
  %79 = load i32, ptr @hf_netlink_sock_diag_rqueue, align 4
  %80 = load ptr, ptr %9, align 8
  %81 = load i32, ptr %14, align 4
  %82 = load ptr, ptr %11, align 8
  %83 = getelementptr inbounds nuw %struct.packet_netlink_data, ptr %82, i32 0, i32 1
  %84 = load i32, ptr %83, align 4
  %85 = call ptr @proto_tree_add_item(ptr noundef %78, i32 noundef %79, ptr noundef %80, i32 noundef %81, i32 noundef 4, i32 noundef %84)
  %86 = load ptr, ptr %12, align 8
  %87 = load i32, ptr @hf_netlink_sock_diag_wqueue, align 4
  %88 = load ptr, ptr %9, align 8
  %89 = load i32, ptr %14, align 4
  %90 = load ptr, ptr %11, align 8
  %91 = getelementptr inbounds nuw %struct.packet_netlink_data, ptr %90, i32 0, i32 1
  %92 = load i32, ptr %91, align 4
  %93 = call ptr @proto_tree_add_item(ptr noundef %86, i32 noundef %87, ptr noundef %88, i32 noundef %89, i32 noundef 4, i32 noundef %92)
  store i32 1, ptr %8, align 4
  store i32 1, ptr %19, align 4
  br label %113

94:                                               ; preds = %74
  store i32 0, ptr %8, align 4
  store i32 1, ptr %19, align 4
  br label %113

95:                                               ; preds = %7
  %96 = load ptr, ptr %12, align 8
  %97 = load ptr, ptr %17, align 8
  %98 = load ptr, ptr %11, align 8
  %99 = load ptr, ptr %9, align 8
  %100 = load i32, ptr %14, align 4
  %101 = load i32, ptr %15, align 4
  %102 = call i32 @dissect_sock_diag_meminfo(ptr noundef %96, ptr noundef %97, ptr noundef %98, ptr noundef %99, i32 noundef %100, i32 noundef %101)
  store i32 %102, ptr %8, align 4
  store i32 1, ptr %19, align 4
  br label %113

103:                                              ; preds = %7
  %104 = load i32, ptr %15, align 4
  %105 = icmp eq i32 %104, 1
  br i1 %105, label %106, label %110

106:                                              ; preds = %103
  %107 = load ptr, ptr %12, align 8
  %108 = load ptr, ptr %9, align 8
  %109 = load i32, ptr %14, align 4
  call void @sock_diag_proto_tree_add_shutdown(ptr noundef %107, ptr noundef %108, i32 noundef %109)
  br label %110

110:                                              ; preds = %106, %103
  store i32 0, ptr %8, align 4
  store i32 1, ptr %19, align 4
  br label %113

111:                                              ; preds = %7, %7
  br label %112

112:                                              ; preds = %7, %111
  store i32 0, ptr %8, align 4
  store i32 1, ptr %19, align 4
  br label %113

113:                                              ; preds = %112, %110, %95, %94, %77, %73, %62, %49
  call void @llvm.lifetime.end.p0(i64 8, ptr %17) #4
  call void @llvm.lifetime.end.p0(i64 4, ptr %16) #4
  %114 = load i32, ptr %8, align 4
  ret i32 %114
}