; Function Attrs: null_pointer_is_valid sspstrong uwtable
define internal range(i32 0, 2) i32 @dissect_netlink_unix_sock_diag_reply_attrs(ptr noundef %0, ptr readnone captures(none) %1, ptr noundef readonly captures(none) %2, ptr noundef %3, i32 noundef %4, i32 noundef %5, i32 noundef %6) #0 {
  %8 = alloca i32, align 4
  switch i32 %4, label %dissect_sock_diag_meminfo.exit [
    i32 0, label %9
    i32 2, label %27
    i32 4, label %35
    i32 5, label %45
    i32 6, label %61
  ]

9:                                                ; preds = %7
  %10 = icmp sgt i32 %6, 0
  br i1 %10, label %11, label %21

11:                                               ; preds = %9
  %12 = tail call zeroext i8 @tvb_get_uint8(ptr noundef %0, i32 noundef %5)
  %13 = icmp eq i8 %12, 0
  br i1 %13, label %14, label %21

14:                                               ; preds = %11
  %15 = tail call ptr @wmem_packet_scope()
  %16 = tail call ptr @wmem_packet_scope()
  %17 = add i32 %5, 1
  %18 = add nsw i32 %6, -1
  %19 = tail call ptr @tvb_get_string_enc(ptr noundef %16, ptr noundef %0, i32 noundef %17, i32 noundef %18, i32 noundef 0)
  %20 = tail call noalias ptr (ptr, ptr, ...) @wmem_strconcat(ptr noundef %15, ptr noundef nonnull @.str.175, ptr noundef %19, ptr noundef null)
  br label %24

21:                                               ; preds = %11, %9
  %22 = tail call ptr @wmem_packet_scope()
  %23 = tail call ptr @tvb_get_string_enc(ptr noundef %22, ptr noundef %0, i32 noundef %5, i32 noundef %6, i32 noundef 0)
  br label %24

24:                                               ; preds = %21, %14
  %.0 = phi ptr [ %20, %14 ], [ %23, %21 ]
  tail call void (ptr, ptr, ...) @proto_item_append_text(ptr noundef %3, ptr noundef nonnull @.str.176, ptr noundef %.0)
  %25 = load i32, ptr @hf_netlink_sock_diag_unix_name, align 4
  %26 = tail call ptr @proto_tree_add_string(ptr noundef %3, i32 noundef %25, ptr noundef %0, i32 noundef %5, i32 noundef %6, ptr noundef %.0)
  br label %dissect_sock_diag_meminfo.exit

27:                                               ; preds = %7
  %28 = icmp eq i32 %6, 4
  br i1 %28, label %29, label %dissect_sock_diag_meminfo.exit

29:                                               ; preds = %27
  call void @llvm.lifetime.start.p0(i64 4, ptr nonnull %8) #5
  %30 = load i32, ptr @hf_netlink_sock_diag_unix_peer_inode, align 4
  %31 = getelementptr inbounds nuw i8, ptr %2, i64 4
  %32 = load i32, ptr %31, align 4
  %33 = call ptr @proto_tree_add_item_ret_uint(ptr noundef %3, i32 noundef %30, ptr noundef %0, i32 noundef %5, i32 noundef 4, i32 noundef %32, ptr noundef nonnull %8)
  %34 = load i32, ptr %8, align 4
  call void (ptr, ptr, ...) @proto_item_append_text(ptr noundef %3, ptr noundef nonnull @.str.177, i32 noundef %34)
  call void @llvm.lifetime.end.p0(i64 4, ptr nonnull %8) #5
  br label %dissect_sock_diag_meminfo.exit

35:                                               ; preds = %7
  %36 = icmp eq i32 %6, 8
  br i1 %36, label %37, label %dissect_sock_diag_meminfo.exit

37:                                               ; preds = %35
  %38 = load i32, ptr @hf_netlink_sock_diag_rqueue, align 4
  %39 = getelementptr inbounds nuw i8, ptr %2, i64 4
  %40 = load i32, ptr %39, align 4
  %41 = tail call ptr @proto_tree_add_item(ptr noundef %3, i32 noundef %38, ptr noundef %0, i32 noundef %5, i32 noundef 4, i32 noundef %40)
  %42 = load i32, ptr @hf_netlink_sock_diag_wqueue, align 4
  %43 = load i32, ptr %39, align 4
  %44 = tail call ptr @proto_tree_add_item(ptr noundef %3, i32 noundef %42, ptr noundef %0, i32 noundef %5, i32 noundef 4, i32 noundef %43)
  br label %dissect_sock_diag_meminfo.exit

45:                                               ; preds = %7
  %46 = icmp ne i32 %6, 0
  %47 = and i32 %6, 3
  %.not.i = icmp eq i32 %47, 0
  %or.cond.i = and i1 %46, %.not.i
  br i1 %or.cond.i, label %.preheader.i, label %dissect_sock_diag_meminfo.exit

.preheader.i:                                     ; preds = %45
  %48 = icmp sgt i32 %6, 3
  br i1 %48, label %.lr.ph.i, label %dissect_sock_diag_meminfo.exit

.lr.ph.i:                                         ; preds = %.preheader.i
  %49 = getelementptr inbounds nuw i8, ptr %2, i64 4
  %50 = add nsw i32 %6, -4
  %51 = lshr exact i32 %50, 2
  %52 = tail call i32 @llvm.umin.i32(i32 %51, i32 5)
  %narrow = add nuw nsw i32 %52, 1
  %53 = zext nneg i32 %narrow to i64
  br label %54

54:                                               ; preds = %54, %.lr.ph.i
  %indvars.iv.i = phi i64 [ 0, %.lr.ph.i ], [ %indvars.iv.next.i, %54 ]
  %.0141.i = phi i32 [ %5, %.lr.ph.i ], [ %60, %54 ]
  %55 = getelementptr [6 x ptr], ptr @dissect_sock_diag_meminfo.hfs, i64 0, i64 %indvars.iv.i
  %56 = load ptr, ptr %55, align 8
  %57 = load i32, ptr %56, align 4
  %58 = load i32, ptr %49, align 4
  %59 = tail call ptr @proto_tree_add_item(ptr noundef %3, i32 noundef %57, ptr noundef %0, i32 noundef %.0141.i, i32 noundef 4, i32 noundef %58)
  %60 = add i32 %.0141.i, 4
  %indvars.iv.next.i = add nuw nsw i64 %indvars.iv.i, 1
  %exitcond.not = icmp eq i64 %indvars.iv.next.i, %53
  br i1 %exitcond.not, label %dissect_sock_diag_meminfo.exit, label %54, !llvm.loop !8

61:                                               ; preds = %7
  %62 = icmp eq i32 %6, 1
  br i1 %62, label %63, label %dissect_sock_diag_meminfo.exit

63:                                               ; preds = %61
  %64 = tail call zeroext i8 @tvb_get_uint8(ptr noundef %0, i32 noundef %5)
  %65 = load i32, ptr @hf_netlink_sock_diag_shutdown, align 4
  %66 = tail call ptr @proto_tree_add_item(ptr noundef %3, i32 noundef %65, ptr noundef %0, i32 noundef %5, i32 noundef 1, i32 noundef 0)
  %67 = zext i8 %64 to i32
  %68 = tail call ptr @val_to_str(i32 noundef %67, ptr noundef nonnull @netlink_sock_diag_shutdown_flags_vals, ptr noundef nonnull @.str.178)
  tail call void (ptr, ptr, ...) @proto_item_append_text(ptr noundef %3, ptr noundef nonnull @.str.176, ptr noundef %68)
  br label %dissect_sock_diag_meminfo.exit

dissect_sock_diag_meminfo.exit:                   ; preds = %54, %.preheader.i, %45, %7, %61, %63, %35, %27, %37, %29, %24
  %.044 = phi i32 [ 1, %37 ], [ 1, %29 ], [ 1, %24 ], [ 0, %27 ], [ 0, %35 ], [ 0, %63 ], [ 0, %61 ], [ 0, %7 ], [ 0, %45 ], [ 1, %.preheader.i ], [ 1, %54 ]
  ret i32 %.044
}